target datalayout = "e-m:e-p270:32:32-p271:32:32-p272:64:64-i64:64-i128:128-f80:128-n8:16:32:64-S128"
target triple = "x86_64-pc-linux-gnu"

%struct.RoseEngine = type { i8, i8, i8, i8, i8, i8, i8, i8, i8, i32, i32, i32, i32, i32, i32, i32, i32, i32, i32, i32, i32, i32, i32, i32, i32, i32, i32, i32, i32, i32, i32, i32, i32, i32, i32, i32, i32, i32, i32, i32, i32, i32, i32, i32, i32, i32, i32, i32, i32, i32, i32, i32, i32, i32, i32, i32, i32, i32, i32, i32, i32, i32, i32, i32, i32, i32, i64, i64, i32, i32, i32, i32, i32, i32, i32, %struct.RoseStateOffsets, %struct.RoseBoundaryReports, i32, i32, i32, i32, i32, i32, i32, i32, i32, i32, i32, i32, %struct.scatter_full_plan }
%struct.RoseStateOffsets = type { i32, i32, i32, i32, i32, i32, i32, i32, i32, i32, i32, i32, i32, i32, i32, i32, i32, i32, i32, i32, i32, i32, i32 }
%struct.RoseBoundaryReports = type { i32, i32, i32 }
%struct.scatter_full_plan = type { i32, i32, i32, i32, i32, i32, i32, i32 }
%struct.hs_database = type { i32, i32, i32, i64, i32, i32, i32, i32, [16 x i32], [0 x i8] }
%struct.hs_stream = type { ptr, i64 }
%struct.unaligned = type { i64 }

@hs_stream_alloc = external global ptr, align 8

; Function Attrs: alwaysinline nounwind uwtable
define internal void @unaligned_store_u64a(ptr noundef %0, i64 noundef %1) #3 {
  %3 = alloca ptr, align 8
  %4 = alloca i64, align 8
  %5 = alloca ptr, align 8
  store ptr %0, ptr %3, align 8
  store i64 %1, ptr %4, align 8
  call void @llvm.lifetime.start.p0(i64 8, ptr %5) #13
  %6 = load ptr, ptr %3, align 8
  store ptr %6, ptr %5, align 8
  %7 = load i64, ptr %4, align 8
  %8 = load ptr, ptr %5, align 8
  %9 = getelementptr inbounds nuw %struct.unaligned, ptr %8, i32 0, i32 0
  store i64 %7, ptr %9, align 1
  call void @llvm.lifetime.end.p0(i64 8, ptr %5) #13
  ret void
}

; Function Attrs: alwaysinline nounwind uwtable
define internal void @mmb_store(ptr noundef %0, i64 noundef %1) #3 {
  %3 = alloca ptr, align 8
  %4 = alloca i64, align 8
  store ptr %0, ptr %3, align 8
  store i64 %1, ptr %4, align 8
  %5 = load ptr, ptr %3, align 8
  %6 = load i64, ptr %4, align 8
  call void @unaligned_store_u64a(ptr noundef %5, i64 noundef %6)
  ret void
}

; Function Attrs: alwaysinline nounwind uwtable
define internal i32 @mmbit_flat_size(i32 noundef %0) #3 {
  %2 = alloca i32, align 4
  store i32 %0, ptr %2, align 4
  %3 = load i32, ptr %2, align 4
  %4 = add i32 %3, 7
  %5 = and i32 %4, -8
  %6 = udiv i32 %5, 8
  ret i32 %6
}

; Function Attrs: alwaysinline nounwind uwtable
define internal i32 @mmbit_is_flat_model(i32 noundef %0) #3 {
  %2 = alloca i32, align 4
  store i32 %0, ptr %2, align 4
  %3 = load i32, ptr %2, align 4
  %4 = icmp ule i32 %3, 256
  %5 = zext i1 %4 to i32
  ret i32 %5
}

; Function Attrs: alwaysinline nounwind uwtable
define internal void @mmbit_clear(ptr noundef %0, i32 noundef %1) #3 {
  %3 = alloca ptr, align 8
  %4 = alloca i32, align 4
  store ptr %0, ptr %3, align 8
  store i32 %1, ptr %4, align 4
  br label %5

5:                                                ; preds = %2
  br label %6

6:                                                ; preds = %5
  br label %7

7:                                                ; preds = %6
  br label %8

8:                                                ; preds = %7
  %9 = load i32, ptr %4, align 4
  %10 = icmp ne i32 %9, 0
  br i1 %10, label %12, label %11

11:                                               ; preds = %8
  br label %23

12:                                               ; preds = %8
  %13 = load i32, ptr %4, align 4
  %14 = call i32 @mmbit_is_flat_model(i32 noundef %13)
  %15 = icmp ne i32 %14, 0
  br i1 %15, label %16, label %21

16:                                               ; preds = %12
  %17 = load ptr, ptr %3, align 8
  %18 = load i32, ptr %4, align 4
  %19 = call i32 @mmbit_flat_size(i32 noundef %18)
  %20 = zext i32 %19 to i64
  call void @llvm.memset.p0.i64(ptr align 1 %17, i8 0, i64 %20, i1 false)
  br label %23

21:                                               ; preds = %12
  %22 = load ptr, ptr %3, align 8
  call void @mmb_store(ptr noundef %22, i64 noundef 0)
  br label %23

23:                                               ; preds = %21, %16, %11
  ret void
}

; Function Attrs: alwaysinline nounwind uwtable
define internal void @initSomState(ptr noundef %0, ptr noundef %1) #3 {
  %3 = alloca ptr, align 8
  %4 = alloca ptr, align 8
  %5 = alloca i32, align 4
  store ptr %0, ptr %3, align 8
  store ptr %1, ptr %4, align 8
  call void @llvm.lifetime.start.p0(i64 4, ptr %5) #13
  %6 = load ptr, ptr %3, align 8
  %7 = getelementptr inbounds nuw %struct.RoseEngine, ptr %6, i32 0, i32 20
  %8 = load i32, ptr %7, align 8
  store i32 %8, ptr %5, align 4
  %9 = load ptr, ptr %4, align 8
  %10 = load ptr, ptr %3, align 8
  %11 = getelementptr inbounds nuw %struct.RoseEngine, ptr %10, i32 0, i32 75
  %12 = getelementptr inbounds nuw %struct.RoseStateOffsets, ptr %11, i32 0, i32 18
  %13 = load i32, ptr %12, align 4
  %14 = zext i32 %13 to i64
  %15 = getelementptr inbounds nuw i8, ptr %9, i64 %14
  %16 = load i32, ptr %5, align 4
  call void @mmbit_clear(ptr noundef %15, i32 noundef %16)
  %17 = load ptr, ptr %4, align 8
  %18 = load ptr, ptr %3, align 8
  %19 = getelementptr inbounds nuw %struct.RoseEngine, ptr %18, i32 0, i32 75
  %20 = getelementptr inbounds nuw %struct.RoseStateOffsets, ptr %19, i32 0, i32 19
  %21 = load i32, ptr %20, align 4
  %22 = zext i32 %21 to i64
  %23 = getelementptr inbounds nuw i8, ptr %17, i64 %22
  %24 = load i32, ptr %5, align 4
  call void @mmbit_clear(ptr noundef %23, i32 noundef %24)
  call void @llvm.lifetime.end.p0(i64 4, ptr %5) #13
  ret void
}

; Function Attrs: alwaysinline nounwind uwtable
define internal void @clearLvec(ptr noundef %0, ptr noundef %1, ptr noundef %2) #3 {
  %4 = alloca ptr, align 8
  %5 = alloca ptr, align 8
  %6 = alloca ptr, align 8
  store ptr %0, ptr %4, align 8
  store ptr %1, ptr %5, align 8
  store ptr %2, ptr %6, align 8
  br label %7

7:                                                ; preds = %3
  br label %8

8:                                                ; preds = %7
  br label %9

9:                                                ; preds = %8
  br label %10

10:                                               ; preds = %9
  %11 = load ptr, ptr %5, align 8
  %12 = load ptr, ptr %4, align 8
  %13 = getelementptr inbounds nuw %struct.RoseEngine, ptr %12, i32 0, i32 12
  %14 = load i32, ptr %13, align 8
  %15 = load ptr, ptr %4, align 8
  %16 = getelementptr inbounds nuw %struct.RoseEngine, ptr %15, i32 0, i32 13
  %17 = load i32, ptr %16, align 4
  %18 = add i32 %14, %17
  call void @mmbit_clear(ptr noundef %11, i32 noundef %18)
  %19 = load ptr, ptr %6, align 8
  %20 = load ptr, ptr %4, align 8
  %21 = getelementptr inbounds nuw %struct.RoseEngine, ptr %20, i32 0, i32 14
  %22 = load i32, ptr %21, align 8
  call void @mmbit_clear(ptr noundef %19, i32 noundef %22)
  ret void
}

; Function Attrs: alwaysinline nounwind uwtable
define internal void @clearEvec(ptr noundef %0, ptr noundef %1) #3 {
  %3 = alloca ptr, align 8
  %4 = alloca ptr, align 8
  store ptr %0, ptr %3, align 8
  store ptr %1, ptr %4, align 8
  br label %5

5:                                                ; preds = %2
  br label %6

6:                                                ; preds = %5
  %7 = load ptr, ptr %4, align 8
  %8 = load ptr, ptr %3, align 8
  %9 = getelementptr inbounds nuw %struct.RoseEngine, ptr %8, i32 0, i32 11
  %10 = load i32, ptr %9, align 4
  call void @mmbit_clear(ptr noundef %7, i32 noundef %10)
  ret void
}

; Function Attrs: alwaysinline nounwind uwtable
define internal void @setStreamStatus(ptr noundef %0, i8 noundef zeroext %1) #3 {
  %3 = alloca ptr, align 8
  %4 = alloca i8, align 1
  store ptr %0, ptr %3, align 8
  store i8 %1, ptr %4, align 1
  %5 = load i8, ptr %4, align 1
  %6 = load ptr, ptr %3, align 8
  %7 = getelementptr inbounds i8, ptr %6, i64 0
  store i8 %5, ptr %7, align 1
  ret void
}

; Function Attrs: alwaysinline nounwind uwtable
define internal void @init_stream(ptr noundef %0, ptr noundef %1, i8 noundef signext %2) #3 {
  %4 = alloca ptr, align 8
  %5 = alloca ptr, align 8
  %6 = alloca i8, align 1
  %7 = alloca ptr, align 8
  %8 = alloca ptr, align 8
  store ptr %0, ptr %4, align 8
  store ptr %1, ptr %5, align 8
  store i8 %2, ptr %6, align 1
  call void @llvm.lifetime.start.p0(i64 8, ptr %7) #13
  %9 = load ptr, ptr %4, align 8
  %10 = getelementptr inbounds nuw i8, ptr %9, i64 16
  store ptr %10, ptr %7, align 8
  %11 = load i8, ptr %6, align 1
  %12 = icmp ne i8 %11, 0
  br i1 %12, label %13, label %28

13:                                               ; preds = %3
  call void @llvm.lifetime.start.p0(i64 8, ptr %8) #13
  %14 = load ptr, ptr %7, align 8
  %15 = load ptr, ptr %5, align 8
  %16 = getelementptr inbounds nuw %struct.RoseEngine, ptr %15, i32 0, i32 75
  %17 = getelementptr inbounds nuw %struct.RoseStateOffsets, ptr %16, i32 0, i32 0
  %18 = load i32, ptr %17, align 4
  %19 = zext i32 %18 to i64
  %20 = getelementptr inbounds nuw i8, ptr %14, i64 %19
  %21 = load ptr, ptr %5, align 8
  %22 = getelementptr inbounds nuw %struct.RoseEngine, ptr %21, i32 0, i32 10
  %23 = load i32, ptr %22, align 8
  %24 = zext i32 %23 to i64
  %25 = getelementptr inbounds nuw i8, ptr %20, i64 %24
  store ptr %25, ptr %8, align 8
  %26 = load ptr, ptr %8, align 8
  %27 = getelementptr inbounds i8, ptr %26, i64 -16
  call void @llvm.memset.p0.i64(ptr align 1 %27, i8 90, i64 16, i1 false)
  call void @llvm.lifetime.end.p0(i64 8, ptr %8) #13
  br label %28

28:                                               ; preds = %13, %3
  %29 = load ptr, ptr %5, align 8
  %30 = load ptr, ptr %4, align 8
  %31 = getelementptr inbounds nuw %struct.hs_stream, ptr %30, i32 0, i32 0
  store ptr %29, ptr %31, align 8
  %32 = load ptr, ptr %4, align 8
  %33 = getelementptr inbounds nuw %struct.hs_stream, ptr %32, i32 0, i32 1
  store i64 0, ptr %33, align 8
  %34 = load ptr, ptr %7, align 8
  call void @setStreamStatus(ptr noundef %34, i8 noundef zeroext 0)
  %35 = load ptr, ptr %5, align 8
  %36 = load ptr, ptr %7, align 8
  call void @roseInitState(ptr noundef %35, ptr noundef %36)
  %37 = load ptr, ptr %5, align 8
  %38 = load ptr, ptr %7, align 8
  %39 = load ptr, ptr %5, align 8
  %40 = getelementptr inbounds nuw %struct.RoseEngine, ptr %39, i32 0, i32 75
  %41 = getelementptr inbounds nuw %struct.RoseStateOffsets, ptr %40, i32 0, i32 1
  %42 = load i32, ptr %41, align 4
  %43 = zext i32 %42 to i64
  %44 = getelementptr inbounds nuw i8, ptr %38, i64 %43
  call void @clearEvec(ptr noundef %37, ptr noundef %44)
  %45 = load ptr, ptr %5, align 8
  %46 = getelementptr inbounds nuw %struct.RoseEngine, ptr %45, i32 0, i32 14
  %47 = load i32, ptr %46, align 8
  %48 = icmp ne i32 %47, 0
  br i1 %48, label %49, label %65

49:                                               ; preds = %28
  %50 = load ptr, ptr %5, align 8
  %51 = load ptr, ptr %7, align 8
  %52 = load ptr, ptr %5, align 8
  %53 = getelementptr inbounds nuw %struct.RoseEngine, ptr %52, i32 0, i32 75
  %54 = getelementptr inbounds nuw %struct.RoseStateOffsets, ptr %53, i32 0, i32 3
  %55 = load i32, ptr %54, align 4
  %56 = zext i32 %55 to i64
  %57 = getelementptr inbounds nuw i8, ptr %51, i64 %56
  %58 = load ptr, ptr %7, align 8
  %59 = load ptr, ptr %5, align 8
  %60 = getelementptr inbounds nuw %struct.RoseEngine, ptr %59, i32 0, i32 75
  %61 = getelementptr inbounds nuw %struct.RoseStateOffsets, ptr %60, i32 0, i32 5
  %62 = load i32, ptr %61, align 4
  %63 = zext i32 %62 to i64
  %64 = getelementptr inbounds nuw i8, ptr %58, i64 %63
  call void @clearLvec(ptr noundef %50, ptr noundef %57, ptr noundef %64)
  br label %65

65:                                               ; preds = %49, %28
  %66 = load ptr, ptr %5, align 8
  %67 = load ptr, ptr %7, align 8
  call void @initSomState(ptr noundef %66, ptr noundef %67)
  call void @llvm.lifetime.end.p0(i64 8, ptr %7) #13
  ret void
}

; Function Attrs: alwaysinline nounwind uwtable
define internal ptr @hs_get_bytecode(ptr noundef %0) #3 {
  %2 = alloca ptr, align 8
  store ptr %0, ptr %2, align 8
  %3 = load ptr, ptr %2, align 8
  %4 = load ptr, ptr %2, align 8
  %5 = getelementptr inbounds nuw %struct.hs_database, ptr %4, i32 0, i32 7
  %6 = load i32, ptr %5, align 4
  %7 = zext i32 %6 to i64
  %8 = getelementptr inbounds nuw i8, ptr %3, i64 %7
  ret ptr %8
}

; Function Attrs: alwaysinline nounwind uwtable
define internal i32 @validDatabase(ptr noundef %0) #3 {
  %2 = alloca i32, align 4
  %3 = alloca ptr, align 8
  store ptr %0, ptr %3, align 8
  %4 = load ptr, ptr %3, align 8
  %5 = icmp ne ptr %4, null
  br i1 %5, label %6, label %11

6:                                                ; preds = %1
  %7 = load ptr, ptr %3, align 8
  %8 = getelementptr inbounds nuw %struct.hs_database, ptr %7, i32 0, i32 0
  %9 = load i32, ptr %8, align 8
  %10 = icmp ne i32 %9, -606348325
  br i1 %10, label %11, label %12

11:                                               ; preds = %6, %1
  store i32 -1, ptr %2, align 4
  br label %19

12:                                               ; preds = %6
  %13 = load ptr, ptr %3, align 8
  %14 = getelementptr inbounds nuw %struct.hs_database, ptr %13, i32 0, i32 1
  %15 = load i32, ptr %14, align 4
  %16 = icmp ne i32 %15, 84148736
  br i1 %16, label %17, label %18

17:                                               ; preds = %12
  store i32 -5, ptr %2, align 4
  br label %19

18:                                               ; preds = %12
  store i32 0, ptr %2, align 4
  br label %19

19:                                               ; preds = %18, %17, %11
  %20 = load i32, ptr %2, align 4
  ret i32 %20
}

; Function Attrs: nounwind uwtable
define dso_local i32 @hs_open_stream(ptr noundef %0, i32 noundef %1, ptr noundef %2) #0 {
  %4 = alloca i32, align 4
  %5 = alloca ptr, align 8
  %6 = alloca i32, align 4
  %7 = alloca ptr, align 8
  %8 = alloca i32, align 4
  %9 = alloca i32, align 4
  %10 = alloca ptr, align 8
  %11 = alloca i64, align 8
  %12 = alloca ptr, align 8
  store ptr %0, ptr %5, align 8
  store i32 %1, ptr %6, align 4
  store ptr %2, ptr %7, align 8
  %13 = load ptr, ptr %7, align 8
  %14 = icmp ne ptr %13, null
  %15 = xor i1 %14, true
  %16 = xor i1 %15, true
  %17 = xor i1 %16, true
  %18 = zext i1 %17 to i32
  %19 = sext i32 %18 to i64
  %20 = call i64 @llvm.expect.i64(i64 %19, i64 0)
  %21 = icmp ne i64 %20, 0
  br i1 %21, label %22, label %23

22:                                               ; preds = %3
  store i32 -1, ptr %4, align 4
  br label %92

23:                                               ; preds = %3
  %24 = load ptr, ptr %7, align 8
  store ptr null, ptr %24, align 8
  call void @llvm.lifetime.start.p0(i64 4, ptr %8) #13
  %25 = load ptr, ptr %5, align 8
  %26 = call i32 @validDatabase(ptr noundef %25)
  store i32 %26, ptr %8, align 4
  %27 = load i32, ptr %8, align 4
  %28 = icmp ne i32 %27, 0
  %29 = xor i1 %28, true
  %30 = xor i1 %29, true
  %31 = zext i1 %30 to i32
  %32 = sext i32 %31 to i64
  %33 = call i64 @llvm.expect.i64(i64 %32, i64 0)
  %34 = icmp ne i64 %33, 0
  br i1 %34, label %35, label %37

35:                                               ; preds = %23
  %36 = load i32, ptr %8, align 4
  store i32 %36, ptr %4, align 4
  store i32 1, ptr %9, align 4
  br label %91

37:                                               ; preds = %23
  call void @llvm.lifetime.start.p0(i64 8, ptr %10) #13
  %38 = load ptr, ptr %5, align 8
  %39 = call ptr @hs_get_bytecode(ptr noundef %38)
  store ptr %39, ptr %10, align 8
  %40 = load ptr, ptr %10, align 8
  %41 = ptrtoint ptr %40 to i64
  %42 = and i64 %41, 15
  %43 = icmp eq i64 %42, 0
  %44 = xor i1 %43, true
  %45 = xor i1 %44, true
  %46 = xor i1 %45, true
  %47 = zext i1 %46 to i32
  %48 = sext i32 %47 to i64
  %49 = call i64 @llvm.expect.i64(i64 %48, i64 0)
  %50 = icmp ne i64 %49, 0
  br i1 %50, label %51, label %52

51:                                               ; preds = %37
  store i32 -1, ptr %4, align 4
  store i32 1, ptr %9, align 4
  br label %90

52:                                               ; preds = %37
  %53 = load ptr, ptr %10, align 8
  %54 = getelementptr inbounds nuw %struct.RoseEngine, ptr %53, i32 0, i32 9
  %55 = load i32, ptr %54, align 4
  %56 = icmp ne i32 %55, 2
  %57 = xor i1 %56, true
  %58 = xor i1 %57, true
  %59 = zext i1 %58 to i32
  %60 = sext i32 %59 to i64
  %61 = call i64 @llvm.expect.i64(i64 %60, i64 0)
  %62 = icmp ne i64 %61, 0
  br i1 %62, label %63, label %64

63:                                               ; preds = %52
  store i32 -7, ptr %4, align 4
  store i32 1, ptr %9, align 4
  br label %90

64:                                               ; preds = %52
  call void @llvm.lifetime.start.p0(i64 8, ptr %11) #13
  %65 = load ptr, ptr %10, align 8
  %66 = getelementptr inbounds nuw %struct.RoseEngine, ptr %65, i32 0, i32 75
  %67 = getelementptr inbounds nuw %struct.RoseStateOffsets, ptr %66, i32 0, i32 22
  %68 = load i32, ptr %67, align 4
  %69 = zext i32 %68 to i64
  store i64 %69, ptr %11, align 8
  call void @llvm.lifetime.start.p0(i64 8, ptr %12) #13
  %70 = load ptr, ptr @hs_stream_alloc, align 8
  %71 = load i64, ptr %11, align 8
  %72 = add i64 16, %71
  %73 = call ptr %70(i64 noundef %72)
  store ptr %73, ptr %12, align 8
  %74 = load ptr, ptr %12, align 8
  %75 = icmp ne ptr %74, null
  %76 = xor i1 %75, true
  %77 = xor i1 %76, true
  %78 = xor i1 %77, true
  %79 = zext i1 %78 to i32
  %80 = sext i32 %79 to i64
  %81 = call i64 @llvm.expect.i64(i64 %80, i64 0)
  %82 = icmp ne i64 %81, 0
  br i1 %82, label %83, label %84

83:                                               ; preds = %64
  store i32 -2, ptr %4, align 4
  store i32 1, ptr %9, align 4
  br label %89

84:                                               ; preds = %64
  %85 = load ptr, ptr %12, align 8
  %86 = load ptr, ptr %10, align 8
  call void @init_stream(ptr noundef %85, ptr noundef %86, i8 noundef signext 1)
  %87 = load ptr, ptr %12, align 8
  %88 = load ptr, ptr %7, align 8
  store ptr %87, ptr %88, align 8
  store i32 0, ptr %4, align 4
  store i32 1, ptr %9, align 4
  br label %89

89:                                               ; preds = %84, %83
  call void @llvm.lifetime.end.p0(i64 8, ptr %12) #13
  call void @llvm.lifetime.end.p0(i64 8, ptr %11) #13
  br label %90

90:                                               ; preds = %89, %63, %51
  call void @llvm.lifetime.end.p0(i64 8, ptr %10) #13
  br label %91

91:                                               ; preds = %90, %35
  call void @llvm.lifetime.end.p0(i64 4, ptr %8) #13
  br label %92

92:                                               ; preds = %91, %22
  %93 = load i32, ptr %4, align 4
  ret i32 %93
}