; Function Attrs: nounwind uwtable
define dso_local range(i32 -7, 1) i32 @hs_open_stream(ptr noundef %0, i32 noundef %1, ptr noundef writeonly %2) local_unnamed_addr #0 {
  %.not = icmp eq ptr %2, null
  br i1 %.not, label %validDatabase.exit.thread, label %4, !prof !17

4:                                                ; preds = %3
  store ptr null, ptr %2, align 8
  %.not.i = icmp eq ptr %0, null
  br i1 %.not.i, label %validDatabase.exit.thread, label %5

5:                                                ; preds = %4
  %6 = load i32, ptr %0, align 8
  %.not4.i = icmp eq i32 %6, -606348325
  br i1 %.not4.i, label %7, label %validDatabase.exit.thread

7:                                                ; preds = %5
  %8 = getelementptr inbounds nuw i8, ptr %0, i64 4
  %9 = load i32, ptr %8, align 4
  %.not5.i = icmp eq i32 %9, 84148736
  br i1 %.not5.i, label %validDatabase.exit, label %validDatabase.exit.thread

validDatabase.exit:                               ; preds = %7
  %10 = getelementptr inbounds nuw i8, ptr %0, i64 36
  %11 = load i32, ptr %10, align 4
  %12 = zext i32 %11 to i64
  %13 = getelementptr inbounds nuw i8, ptr %0, i64 %12
  %14 = ptrtoint ptr %13 to i64
  %15 = and i64 %14, 15
  %.not17 = icmp eq i64 %15, 0
  br i1 %.not17, label %16, label %validDatabase.exit.thread, !prof !6

16:                                               ; preds = %validDatabase.exit
  %17 = getelementptr inbounds nuw i8, ptr %13, i64 12
  %18 = load i32, ptr %17, align 4
  %.not18 = icmp eq i32 %18, 2
  br i1 %.not18, label %19, label %validDatabase.exit.thread, !prof !6

19:                                               ; preds = %16
  %20 = getelementptr inbounds nuw i8, ptr %13, i64 372
  %21 = load i32, ptr %20, align 4
  %22 = zext i32 %21 to i64
  %23 = load ptr, ptr @hs_stream_alloc, align 8
  %24 = add nuw nsw i64 %22, 16
  %25 = tail call ptr %23(i64 noundef %24) #13
  %.not19 = icmp eq ptr %25, null
  br i1 %.not19, label %validDatabase.exit.thread, label %26, !prof !17

26:                                               ; preds = %19
  %27 = getelementptr inbounds nuw i8, ptr %25, i64 16
  %28 = getelementptr inbounds nuw i8, ptr %13, i64 284
  %29 = load i32, ptr %28, align 4
  %30 = zext i32 %29 to i64
  %31 = getelementptr inbounds nuw i8, ptr %27, i64 %30
  %32 = getelementptr inbounds nuw i8, ptr %13, i64 16
  %33 = load i32, ptr %32, align 8
  %34 = zext i32 %33 to i64
  %35 = getelementptr inbounds nuw i8, ptr %31, i64 %34
  %36 = getelementptr inbounds i8, ptr %35, i64 -16
  tail call void @llvm.memset.p0.i64(ptr noundef nonnull align 1 dereferenceable(16) %36, i8 90, i64 16, i1 false)
  store ptr %13, ptr %25, align 8
  %37 = getelementptr inbounds nuw i8, ptr %25, i64 8
  store i64 0, ptr %37, align 8
  store i8 0, ptr %27, align 1
  tail call void @roseInitState(ptr noundef nonnull %13, ptr noundef nonnull %27) #13
  %38 = getelementptr inbounds nuw i8, ptr %13, i64 288
  %39 = load i32, ptr %38, align 4
  %40 = zext i32 %39 to i64
  %41 = getelementptr inbounds nuw i8, ptr %27, i64 %40
  %42 = getelementptr inbounds nuw i8, ptr %13, i64 20
  %43 = load i32, ptr %42, align 4
  %.not.i25 = icmp eq i32 %43, 0
  br i1 %.not.i25, label %mmbit_clear.exit27, label %44

44:                                               ; preds = %26
  %45 = icmp ugt i32 %43, 256
  br i1 %45, label %50, label %46

46:                                               ; preds = %44
  %47 = add nuw nsw i32 %43, 7
  %48 = lshr i32 %47, 3
  %49 = zext nneg i32 %48 to i64
  tail call void @llvm.memset.p0.i64(ptr nonnull align 1 %41, i8 0, i64 %49, i1 false)
  br label %mmbit_clear.exit27

50:                                               ; preds = %44
  store i64 0, ptr %41, align 1
  br label %mmbit_clear.exit27

mmbit_clear.exit27:                               ; preds = %26, %46, %50
  %51 = getelementptr inbounds nuw i8, ptr %13, i64 32
  %52 = load i32, ptr %51, align 8
  %.not22.i = icmp eq i32 %52, 0
  br i1 %.not22.i, label %init_stream.exit, label %53

53:                                               ; preds = %mmbit_clear.exit27
  %54 = getelementptr inbounds nuw i8, ptr %13, i64 296
  %55 = load i32, ptr %54, align 4
  %56 = zext i32 %55 to i64
  %57 = getelementptr inbounds nuw i8, ptr %27, i64 %56
  %58 = getelementptr inbounds nuw i8, ptr %13, i64 304
  %59 = load i32, ptr %58, align 4
  %60 = zext i32 %59 to i64
  %61 = getelementptr inbounds nuw i8, ptr %27, i64 %60
  %62 = getelementptr inbounds nuw i8, ptr %13, i64 24
  %63 = load i32, ptr %62, align 8
  %64 = getelementptr inbounds nuw i8, ptr %13, i64 28
  %65 = load i32, ptr %64, align 4
  %66 = add i32 %65, %63
  %.not.i22 = icmp eq i32 %66, 0
  br i1 %.not.i22, label %mmbit_clear.exit24, label %67

67:                                               ; preds = %53
  %68 = icmp ugt i32 %66, 256
  br i1 %68, label %73, label %69

69:                                               ; preds = %67
  %70 = add nuw nsw i32 %66, 7
  %71 = lshr i32 %70, 3
  %72 = zext nneg i32 %71 to i64
  tail call void @llvm.memset.p0.i64(ptr nonnull align 1 %57, i8 0, i64 %72, i1 false)
  br label %mmbit_clear.exit24

73:                                               ; preds = %67
  store i64 0, ptr %57, align 1
  br label %mmbit_clear.exit24

mmbit_clear.exit24:                               ; preds = %53, %69, %73
  %74 = load i32, ptr %51, align 8
  %.not.i20 = icmp eq i32 %74, 0
  br i1 %.not.i20, label %init_stream.exit, label %75

75:                                               ; preds = %mmbit_clear.exit24
  %76 = icmp ugt i32 %74, 256
  br i1 %76, label %81, label %77

77:                                               ; preds = %75
  %78 = add nuw nsw i32 %74, 7
  %79 = lshr i32 %78, 3
  %80 = zext nneg i32 %79 to i64
  tail call void @llvm.memset.p0.i64(ptr nonnull align 1 %61, i8 0, i64 %80, i1 false)
  br label %init_stream.exit

81:                                               ; preds = %75
  store i64 0, ptr %61, align 1
  br label %init_stream.exit

init_stream.exit:                                 ; preds = %81, %77, %mmbit_clear.exit24, %mmbit_clear.exit27
  %82 = getelementptr inbounds nuw i8, ptr %13, i64 56
  %83 = load i32, ptr %82, align 8
  %84 = getelementptr inbounds nuw i8, ptr %13, i64 356
  %85 = load i32, ptr %84, align 4
  %86 = zext i32 %85 to i64
  %87 = getelementptr inbounds nuw i8, ptr %27, i64 %86
  %.not.i6.i = icmp eq i32 %83, 0
  br i1 %.not.i6.i, label %initSomState.exit, label %88

88:                                               ; preds = %init_stream.exit
  %89 = icmp ugt i32 %83, 256
  br i1 %89, label %101, label %90

90:                                               ; preds = %88
  %91 = add nuw nsw i32 %83, 7
  %92 = lshr i32 %91, 3
  %93 = zext nneg i32 %92 to i64
  tail call void @llvm.memset.p0.i64(ptr nonnull align 1 %87, i8 0, i64 %93, i1 false)
  %94 = getelementptr inbounds nuw i8, ptr %13, i64 360
  %95 = load i32, ptr %94, align 4
  %96 = zext i32 %95 to i64
  %97 = getelementptr inbounds nuw i8, ptr %27, i64 %96
  %98 = add nuw nsw i32 %83, 7
  %99 = lshr i32 %98, 3
  %100 = zext nneg i32 %99 to i64
  tail call void @llvm.memset.p0.i64(ptr nonnull align 1 %97, i8 0, i64 %100, i1 false)
  br label %initSomState.exit

101:                                              ; preds = %88
  store i64 0, ptr %87, align 1
  %102 = getelementptr inbounds nuw i8, ptr %13, i64 360
  %103 = load i32, ptr %102, align 4
  %104 = zext i32 %103 to i64
  %105 = getelementptr inbounds nuw i8, ptr %27, i64 %104
  store i64 0, ptr %105, align 1
  br label %initSomState.exit

initSomState.exit:                                ; preds = %init_stream.exit, %90, %101
  store ptr %25, ptr %2, align 8
  br label %validDatabase.exit.thread

validDatabase.exit.thread:                        ; preds = %7, %4, %5, %initSomState.exit, %19, %16, %validDatabase.exit, %3
  %.0 = phi i32 [ -1, %3 ], [ -1, %validDatabase.exit ], [ -7, %16 ], [ 0, %initSomState.exit ], [ -2, %19 ], [ -5, %7 ], [ -1, %4 ], [ -1, %5 ]
  ret i32 %.0
}